target datalayout = "e-m:e-p270:32:32-p271:32:32-p272:64:64-i64:64-i128:128-f80:128-n8:16:32:64-S128"
target triple = "x86_64-pc-linux-gnu"

%struct._object = type { %union.anon, ptr }
%union.anon = type { i64 }
%struct.anon = type { i32, i32 }
%struct.PyASCIIObject = type { %struct._object, i64, i64, %struct.anon.4 }
%struct.anon.4 = type { i16, i16 }
%struct.XML_Encoding = type { [256 x i32], ptr, ptr, ptr }
%struct.PyCompactUnicodeObject = type { %struct.PyASCIIObject, i64, ptr }
%struct.PyUnicodeObject = type { %struct.PyCompactUnicodeObject, %union.anon.5 }
%union.anon.5 = type { ptr }

@PyExc_ValueError = external global ptr, align 8
@.str.14 = private unnamed_addr constant [8 x i8] c"replace\00", align 1
@.str.15 = private unnamed_addr constant [39 x i8] c"multi-byte encodings are not supported\00", align 1

; Function Attrs: inlinehint nounwind uwtable
define internal i32 @PyUnicode_IS_ASCII(ptr noundef %0) #3 {
  %2 = alloca ptr, align 8
  store ptr %0, ptr %2, align 8, !tbaa !3
  %3 = load ptr, ptr %2, align 8, !tbaa !3
  %4 = getelementptr inbounds nuw %struct.PyASCIIObject, ptr %3, i32 0, i32 3
  %5 = getelementptr inbounds nuw %struct.anon.4, ptr %4, i32 0, i32 1
  %6 = load i16, ptr %5, align 2
  %7 = lshr i16 %6, 4
  %8 = and i16 %7, 1
  %9 = zext i16 %8 to i32
  ret i32 %9
}

; Function Attrs: inlinehint nounwind uwtable
define internal ptr @_PyUnicode_NONCOMPACT_DATA(ptr noundef %0) #3 {
  %2 = alloca ptr, align 8
  %3 = alloca ptr, align 8
  store ptr %0, ptr %2, align 8, !tbaa !3
  call void @llvm.lifetime.start.p0(i64 8, ptr %3) #7
  %4 = load ptr, ptr %2, align 8, !tbaa !3
  %5 = getelementptr inbounds nuw %struct.PyUnicodeObject, ptr %4, i32 0, i32 1
  %6 = load ptr, ptr %5, align 8, !tbaa !49
  store ptr %6, ptr %3, align 8, !tbaa !8
  %7 = load ptr, ptr %3, align 8, !tbaa !8
  call void @llvm.lifetime.end.p0(i64 8, ptr %3) #7
  ret ptr %7
}

; Function Attrs: inlinehint nounwind uwtable
define internal ptr @_PyUnicode_COMPACT_DATA(ptr noundef %0) #3 {
  %2 = alloca ptr, align 8
  %3 = alloca ptr, align 8
  store ptr %0, ptr %3, align 8, !tbaa !3
  %4 = load ptr, ptr %3, align 8, !tbaa !3
  %5 = call i32 @PyUnicode_IS_ASCII(ptr noundef %4)
  %6 = icmp ne i32 %5, 0
  br i1 %6, label %7, label %10

7:                                                ; preds = %1
  %8 = load ptr, ptr %3, align 8, !tbaa !3
  %9 = getelementptr %struct.PyASCIIObject, ptr %8, i64 1
  store ptr %9, ptr %2, align 8
  br label %13

10:                                               ; preds = %1
  %11 = load ptr, ptr %3, align 8, !tbaa !3
  %12 = getelementptr %struct.PyCompactUnicodeObject, ptr %11, i64 1
  store ptr %12, ptr %2, align 8
  br label %13

13:                                               ; preds = %10, %7
  %14 = load ptr, ptr %2, align 8
  ret ptr %14
}

; Function Attrs: inlinehint nounwind uwtable
define internal i32 @PyUnicode_IS_COMPACT(ptr noundef %0) #3 {
  %2 = alloca ptr, align 8
  store ptr %0, ptr %2, align 8, !tbaa !3
  %3 = load ptr, ptr %2, align 8, !tbaa !3
  %4 = getelementptr inbounds nuw %struct.PyASCIIObject, ptr %3, i32 0, i32 3
  %5 = getelementptr inbounds nuw %struct.anon.4, ptr %4, i32 0, i32 1
  %6 = load i16, ptr %5, align 2
  %7 = lshr i16 %6, 3
  %8 = and i16 %7, 1
  %9 = zext i16 %8 to i32
  ret i32 %9
}

; Function Attrs: alwaysinline nounwind uwtable
define internal i32 @_Py_IsImmortal(ptr noundef %0) #5 {
  %2 = alloca ptr, align 8
  store ptr %0, ptr %2, align 8, !tbaa !3
  %3 = load ptr, ptr %2, align 8, !tbaa !3
  %4 = getelementptr inbounds nuw %struct._object, ptr %3, i32 0, i32 0
  %5 = getelementptr inbounds nuw %struct.anon, ptr %4, i32 0, i32 0
  %6 = load i32, ptr %5, align 8, !tbaa !49
  %7 = icmp slt i32 %6, 0
  %8 = zext i1 %7 to i32
  ret i32 %8
}

; Function Attrs: inlinehint nounwind uwtable
define internal i32 @PyUnicode_READ(i32 noundef %0, ptr noundef %1, i64 noundef %2) #3 {
  %4 = alloca i32, align 4
  %5 = alloca i32, align 4
  %6 = alloca ptr, align 8
  %7 = alloca i64, align 8
  store i32 %0, ptr %5, align 4, !tbaa !12
  store ptr %1, ptr %6, align 8, !tbaa !8
  store i64 %2, ptr %7, align 8, !tbaa !21
  %8 = load i32, ptr %5, align 4, !tbaa !12
  %9 = icmp eq i32 %8, 1
  br i1 %9, label %10, label %16

10:                                               ; preds = %3
  %11 = load ptr, ptr %6, align 8, !tbaa !8
  %12 = load i64, ptr %7, align 8, !tbaa !21
  %13 = getelementptr i8, ptr %11, i64 %12
  %14 = load i8, ptr %13, align 1, !tbaa !49
  %15 = zext i8 %14 to i32
  store i32 %15, ptr %4, align 4
  br label %30

16:                                               ; preds = %3
  %17 = load i32, ptr %5, align 4, !tbaa !12
  %18 = icmp eq i32 %17, 2
  br i1 %18, label %19, label %25

19:                                               ; preds = %16
  %20 = load ptr, ptr %6, align 8, !tbaa !8
  %21 = load i64, ptr %7, align 8, !tbaa !21
  %22 = getelementptr i16, ptr %20, i64 %21
  %23 = load i16, ptr %22, align 2, !tbaa !65
  %24 = zext i16 %23 to i32
  store i32 %24, ptr %4, align 4
  br label %30

25:                                               ; preds = %16
  %26 = load ptr, ptr %6, align 8, !tbaa !8
  %27 = load i64, ptr %7, align 8, !tbaa !21
  %28 = getelementptr i32, ptr %26, i64 %27
  %29 = load i32, ptr %28, align 4, !tbaa !12
  store i32 %29, ptr %4, align 4
  br label %30

30:                                               ; preds = %25, %19, %10
  %31 = load i32, ptr %4, align 4
  ret i32 %31
}

; Function Attrs: inlinehint nounwind uwtable
define internal ptr @_PyUnicode_DATA(ptr noundef %0) #3 {
  %2 = alloca ptr, align 8
  %3 = alloca ptr, align 8
  store ptr %0, ptr %3, align 8, !tbaa !3
  %4 = load ptr, ptr %3, align 8, !tbaa !3
  %5 = call i32 @PyUnicode_IS_COMPACT(ptr noundef %4)
  %6 = icmp ne i32 %5, 0
  br i1 %6, label %7, label %10

7:                                                ; preds = %1
  %8 = load ptr, ptr %3, align 8, !tbaa !3
  %9 = call ptr @_PyUnicode_COMPACT_DATA(ptr noundef %8)
  store ptr %9, ptr %2, align 8
  br label %13

10:                                               ; preds = %1
  %11 = load ptr, ptr %3, align 8, !tbaa !3
  %12 = call ptr @_PyUnicode_NONCOMPACT_DATA(ptr noundef %11)
  store ptr %12, ptr %2, align 8
  br label %13

13:                                               ; preds = %10, %7
  %14 = load ptr, ptr %2, align 8
  ret ptr %14
}

; Function Attrs: alwaysinline nounwind uwtable
define internal void @Py_DECREF(ptr noundef %0) #5 {
  %2 = alloca ptr, align 8
  store ptr %0, ptr %2, align 8, !tbaa !3
  %3 = load ptr, ptr %2, align 8, !tbaa !3
  %4 = call i32 @_Py_IsImmortal(ptr noundef %3)
  %5 = icmp ne i32 %4, 0
  br i1 %5, label %6, label %7

6:                                                ; preds = %1
  br label %16

7:                                                ; preds = %1
  %8 = load ptr, ptr %2, align 8, !tbaa !3
  %9 = getelementptr inbounds nuw %struct._object, ptr %8, i32 0, i32 0
  %10 = getelementptr inbounds nuw %struct.anon, ptr %9, i32 0, i32 0
  %11 = load i32, ptr %10, align 8, !tbaa !49
  %12 = add i32 %11, -1
  store i32 %12, ptr %10, align 8, !tbaa !49
  %13 = icmp eq i32 %12, 0
  br i1 %13, label %14, label %16

14:                                               ; preds = %7
  %15 = load ptr, ptr %2, align 8, !tbaa !3
  call void @_Py_Dealloc(ptr noundef %15)
  br label %16

16:                                               ; preds = %6, %14, %7
  ret void
}

; Function Attrs: inlinehint nounwind uwtable
define internal i64 @PyUnicode_GET_LENGTH(ptr noundef %0) #3 {
  %2 = alloca ptr, align 8
  store ptr %0, ptr %2, align 8, !tbaa !3
  %3 = load ptr, ptr %2, align 8, !tbaa !3
  %4 = getelementptr inbounds nuw %struct.PyASCIIObject, ptr %3, i32 0, i32 1
  %5 = load i64, ptr %4, align 8, !tbaa !62
  ret i64 %5
}

; Function Attrs: inlinehint nounwind uwtable
define internal void @Py_XDECREF(ptr noundef %0) #3 {
  %2 = alloca ptr, align 8
  store ptr %0, ptr %2, align 8, !tbaa !3
  %3 = load ptr, ptr %2, align 8, !tbaa !3
  %4 = icmp ne ptr %3, null
  br i1 %4, label %5, label %7

5:                                                ; preds = %1
  %6 = load ptr, ptr %2, align 8, !tbaa !3
  call void @Py_DECREF(ptr noundef %6)
  br label %7

7:                                                ; preds = %5, %1
  ret void
}

; Function Attrs: nounwind uwtable
define internal i32 @PyUnknownEncodingHandler(ptr noundef %0, ptr noundef %1, ptr noundef %2) #0 {
  %4 = alloca i32, align 4
  %5 = alloca ptr, align 8
  %6 = alloca ptr, align 8
  %7 = alloca ptr, align 8
  %8 = alloca ptr, align 8
  %9 = alloca i32, align 4
  %10 = alloca ptr, align 8
  %11 = alloca i32, align 4
  %12 = alloca i32, align 4
  %13 = alloca i32, align 4
  store ptr %0, ptr %5, align 8, !tbaa !8
  store ptr %1, ptr %6, align 8, !tbaa !23
  store ptr %2, ptr %7, align 8, !tbaa !8
  call void @llvm.lifetime.start.p0(i64 8, ptr %8) #7
  call void @llvm.lifetime.start.p0(i64 4, ptr %9) #7
  call void @llvm.lifetime.start.p0(i64 8, ptr %10) #7
  call void @llvm.lifetime.start.p0(i64 4, ptr %11) #7
  %14 = call ptr @PyErr_Occurred()
  %15 = icmp ne ptr %14, null
  br i1 %15, label %16, label %17

16:                                               ; preds = %3
  store i32 0, ptr %4, align 4
  store i32 1, ptr %12, align 4
  br label %76

17:                                               ; preds = %3
  %18 = load ptr, ptr %6, align 8, !tbaa !23
  %19 = call ptr @PyUnicode_Decode(ptr noundef @template_buffer, i64 noundef 256, ptr noundef %18, ptr noundef @.str.14)
  store ptr %19, ptr %8, align 8, !tbaa !3
  %20 = load ptr, ptr %8, align 8, !tbaa !3
  %21 = icmp eq ptr %20, null
  br i1 %21, label %22, label %24

22:                                               ; preds = %17
  %23 = load ptr, ptr %8, align 8, !tbaa !3
  call void @Py_XDECREF(ptr noundef %23)
  store i32 0, ptr %4, align 4
  store i32 1, ptr %12, align 4
  br label %76

24:                                               ; preds = %17
  %25 = load ptr, ptr %8, align 8, !tbaa !3
  %26 = call i64 @PyUnicode_GET_LENGTH(ptr noundef %25)
  %27 = icmp ne i64 %26, 256
  br i1 %27, label %28, label %31

28:                                               ; preds = %24
  %29 = load ptr, ptr %8, align 8, !tbaa !3
  call void @Py_DECREF(ptr noundef %29)
  %30 = load ptr, ptr @PyExc_ValueError, align 8, !tbaa !3
  call void @PyErr_SetString(ptr noundef %30, ptr noundef @.str.15)
  store i32 0, ptr %4, align 4
  store i32 1, ptr %12, align 4
  br label %76

31:                                               ; preds = %24
  %32 = load ptr, ptr %8, align 8, !tbaa !3
  %33 = getelementptr inbounds nuw %struct.PyASCIIObject, ptr %32, i32 0, i32 3
  %34 = getelementptr inbounds nuw %struct.anon.4, ptr %33, i32 0, i32 1
  %35 = load i16, ptr %34, align 2
  %36 = and i16 %35, 7
  %37 = zext i16 %36 to i32
  store i32 %37, ptr %11, align 4, !tbaa !12
  %38 = load ptr, ptr %8, align 8, !tbaa !3
  %39 = call ptr @_PyUnicode_DATA(ptr noundef %38)
  store ptr %39, ptr %10, align 8, !tbaa !8
  store i32 0, ptr %9, align 4, !tbaa !12
  br label %40

40:                                               ; preds = %65, %31
  %41 = load i32, ptr %9, align 4, !tbaa !12
  %42 = icmp slt i32 %41, 256
  br i1 %42, label %43, label %68

43:                                               ; preds = %40
  call void @llvm.lifetime.start.p0(i64 4, ptr %13) #7
  %44 = load i32, ptr %11, align 4, !tbaa !12
  %45 = load ptr, ptr %10, align 8, !tbaa !8
  %46 = load i32, ptr %9, align 4, !tbaa !12
  %47 = sext i32 %46 to i64
  %48 = call i32 @PyUnicode_READ(i32 noundef %44, ptr noundef %45, i64 noundef %47)
  store i32 %48, ptr %13, align 4, !tbaa !12
  %49 = load i32, ptr %13, align 4, !tbaa !12
  %50 = icmp ne i32 %49, 65533
  br i1 %50, label %51, label %58

51:                                               ; preds = %43
  %52 = load i32, ptr %13, align 4, !tbaa !12
  %53 = load ptr, ptr %7, align 8, !tbaa !8
  %54 = getelementptr inbounds nuw %struct.XML_Encoding, ptr %53, i32 0, i32 0
  %55 = load i32, ptr %9, align 4, !tbaa !12
  %56 = sext i32 %55 to i64
  %57 = getelementptr [256 x i32], ptr %54, i64 0, i64 %56
  store i32 %52, ptr %57, align 4, !tbaa !12
  br label %64

58:                                               ; preds = %43
  %59 = load ptr, ptr %7, align 8, !tbaa !8
  %60 = getelementptr inbounds nuw %struct.XML_Encoding, ptr %59, i32 0, i32 0
  %61 = load i32, ptr %9, align 4, !tbaa !12
  %62 = sext i32 %61 to i64
  %63 = getelementptr [256 x i32], ptr %60, i64 0, i64 %62
  store i32 -1, ptr %63, align 4, !tbaa !12
  br label %64

64:                                               ; preds = %58, %51
  call void @llvm.lifetime.end.p0(i64 4, ptr %13) #7
  br label %65

65:                                               ; preds = %64
  %66 = load i32, ptr %9, align 4, !tbaa !12
  %67 = add i32 %66, 1
  store i32 %67, ptr %9, align 4, !tbaa !12
  br label %40, !llvm.loop !55

68:                                               ; preds = %40
  %69 = load ptr, ptr %7, align 8, !tbaa !8
  %70 = getelementptr inbounds nuw %struct.XML_Encoding, ptr %69, i32 0, i32 1
  store ptr null, ptr %70, align 8, !tbaa !56
  %71 = load ptr, ptr %7, align 8, !tbaa !8
  %72 = getelementptr inbounds nuw %struct.XML_Encoding, ptr %71, i32 0, i32 2
  store ptr null, ptr %72, align 8, !tbaa !58
  %73 = load ptr, ptr %7, align 8, !tbaa !8
  %74 = getelementptr inbounds nuw %struct.XML_Encoding, ptr %73, i32 0, i32 3
  store ptr null, ptr %74, align 8, !tbaa !59
  %75 = load ptr, ptr %8, align 8, !tbaa !3
  call void @Py_DECREF(ptr noundef %75)
  store i32 1, ptr %4, align 4
  store i32 1, ptr %12, align 4
  br label %76

76:                                               ; preds = %68, %28, %22, %16
  call void @llvm.lifetime.end.p0(i64 4, ptr %11) #7
  call void @llvm.lifetime.end.p0(i64 8, ptr %10) #7
  call void @llvm.lifetime.end.p0(i64 4, ptr %9) #7
  call void @llvm.lifetime.end.p0(i64 8, ptr %8) #7
  %77 = load i32, ptr %4, align 4
  ret i32 %77
}