; Function Attrs: nounwind uwtable
define internal range(i32 0, 2) i32 @PyUnknownEncodingHandler(ptr readnone captures(none) %0, ptr noundef %1, ptr noundef writeonly captures(none) %2) #0 {
  %4 = tail call ptr @PyErr_Occurred() #8
  %.not = icmp eq ptr %4, null
  br i1 %.not, label %5, label %Py_DECREF.exit

5:                                                ; preds = %3
  %6 = tail call ptr @PyUnicode_Decode(ptr noundef nonnull @template_buffer, i64 noundef 256, ptr noundef %1, ptr noundef nonnull @.str.14) #8
  %7 = icmp eq ptr %6, null
  br i1 %7, label %Py_DECREF.exit, label %8

8:                                                ; preds = %5
  %9 = getelementptr i8, ptr %6, i64 16
  %.val = load i64, ptr %9, align 8, !tbaa !46
  %.not25 = icmp eq i64 %.val, 256
  br i1 %.not25, label %17, label %10

10:                                               ; preds = %8
  %11 = load i32, ptr %6, align 8, !tbaa !13
  %.not.i27 = icmp sgt i32 %11, -1
  br i1 %.not.i27, label %12, label %Py_DECREF.exit28

12:                                               ; preds = %10
  %13 = add nsw i32 %11, -1
  store i32 %13, ptr %6, align 8, !tbaa !13
  %14 = icmp eq i32 %13, 0
  br i1 %14, label %15, label %Py_DECREF.exit28

15:                                               ; preds = %12
  tail call void @_Py_Dealloc(ptr noundef nonnull %6) #8
  br label %Py_DECREF.exit28

Py_DECREF.exit28:                                 ; preds = %10, %12, %15
  %16 = load ptr, ptr @PyExc_ValueError, align 8, !tbaa !14
  tail call void @PyErr_SetString(ptr noundef %16, ptr noundef nonnull @.str.15) #8
  br label %Py_DECREF.exit

17:                                               ; preds = %8
  %18 = getelementptr inbounds nuw i8, ptr %6, i64 34
  %19 = load i16, ptr %18, align 2
  %20 = and i16 %19, 7
  %21 = and i16 %19, 8
  %.not.i30 = icmp eq i16 %21, 0
  br i1 %.not.i30, label %24, label %22

22:                                               ; preds = %17
  %23 = and i16 %19, 16
  %.not.i.i = icmp eq i16 %23, 0
  %.0.v.i.i = select i1 %.not.i.i, i64 56, i64 40
  %.0.i.i = getelementptr i8, ptr %6, i64 %.0.v.i.i
  br label %_PyUnicode_DATA.exit

24:                                               ; preds = %17
  %25 = getelementptr i8, ptr %6, i64 56
  %.val4.i = load ptr, ptr %25, align 8, !tbaa !13
  br label %_PyUnicode_DATA.exit

_PyUnicode_DATA.exit:                             ; preds = %22, %24
  %.0.i = phi ptr [ %.0.i.i, %22 ], [ %.val4.i, %24 ]
  switch i16 %20, label %PyUnicode_READ.exit [
    i16 1, label %PyUnicode_READ.exit.thread.us
    i16 2, label %PyUnicode_READ.exit.us38
  ]

PyUnicode_READ.exit.thread.us:                    ; preds = %_PyUnicode_DATA.exit, %PyUnicode_READ.exit.thread.us
  %indvars.iv45 = phi i64 [ %indvars.iv.next46, %PyUnicode_READ.exit.thread.us ], [ 0, %_PyUnicode_DATA.exit ]
  %26 = getelementptr i8, ptr %.0.i, i64 %indvars.iv45
  %27 = load i8, ptr %26, align 1, !tbaa !13
  %28 = zext i8 %27 to i32
  %29 = getelementptr [256 x i32], ptr %2, i64 0, i64 %indvars.iv45
  store i32 %28, ptr %29, align 4, !tbaa !49
  %indvars.iv.next46 = add nuw nsw i64 %indvars.iv45, 1
  %exitcond48.not = icmp eq i64 %indvars.iv.next46, 256
  br i1 %exitcond48.not, label %.split.us, label %PyUnicode_READ.exit.thread.us, !llvm.loop !50

PyUnicode_READ.exit.us38:                         ; preds = %_PyUnicode_DATA.exit, %PyUnicode_READ.exit.us38
  %indvars.iv = phi i64 [ %indvars.iv.next, %PyUnicode_READ.exit.us38 ], [ 0, %_PyUnicode_DATA.exit ]
  %30 = getelementptr i16, ptr %.0.i, i64 %indvars.iv
  %31 = load i16, ptr %30, align 2, !tbaa !51
  %.not26.us40 = icmp eq i16 %31, -3
  %32 = zext i16 %31 to i32
  %spec.select = select i1 %.not26.us40, i32 -1, i32 %32
  %33 = getelementptr [256 x i32], ptr %2, i64 0, i64 %indvars.iv
  store i32 %spec.select, ptr %33, align 4, !tbaa !49
  %indvars.iv.next = add nuw nsw i64 %indvars.iv, 1
  %exitcond.not = icmp eq i64 %indvars.iv.next, 256
  br i1 %exitcond.not, label %.split.us, label %PyUnicode_READ.exit.us38, !llvm.loop !50

PyUnicode_READ.exit:                              ; preds = %_PyUnicode_DATA.exit, %PyUnicode_READ.exit
  %indvars.iv49 = phi i64 [ %indvars.iv.next50, %PyUnicode_READ.exit ], [ 0, %_PyUnicode_DATA.exit ]
  %34 = getelementptr i32, ptr %.0.i, i64 %indvars.iv49
  %35 = load i32, ptr %34, align 4, !tbaa !49
  %.not26 = icmp eq i32 %35, 65533
  %spec.select56 = select i1 %.not26, i32 -1, i32 %35
  %36 = getelementptr [256 x i32], ptr %2, i64 0, i64 %indvars.iv49
  store i32 %spec.select56, ptr %36, align 4, !tbaa !49
  %indvars.iv.next50 = add nuw nsw i64 %indvars.iv49, 1
  %exitcond52.not = icmp eq i64 %indvars.iv.next50, 256
  br i1 %exitcond52.not, label %.split.us, label %PyUnicode_READ.exit, !llvm.loop !50

.split.us:                                        ; preds = %PyUnicode_READ.exit.us38, %PyUnicode_READ.exit.thread.us, %PyUnicode_READ.exit
  %37 = getelementptr inbounds nuw i8, ptr %2, i64 1024
  tail call void @llvm.memset.p0.i64(ptr noundef nonnull align 8 dereferenceable(24) %37, i8 0, i64 24, i1 false)
  %38 = load i32, ptr %6, align 8, !tbaa !13
  %.not.i = icmp sgt i32 %38, -1
  br i1 %.not.i, label %39, label %Py_DECREF.exit

39:                                               ; preds = %.split.us
  %40 = add nsw i32 %38, -1
  store i32 %40, ptr %6, align 8, !tbaa !13
  %41 = icmp eq i32 %40, 0
  br i1 %41, label %42, label %Py_DECREF.exit

42:                                               ; preds = %39
  tail call void @_Py_Dealloc(ptr noundef nonnull %6) #8
  br label %Py_DECREF.exit

Py_DECREF.exit:                                   ; preds = %42, %39, %.split.us, %5, %3, %Py_DECREF.exit28
  %.0 = phi i32 [ 0, %Py_DECREF.exit28 ], [ 0, %3 ], [ 0, %5 ], [ 1, %.split.us ], [ 1, %39 ], [ 1, %42 ]
  ret i32 %.0
}